target datalayout = "e-m:e-p270:32:32-p271:32:32-p272:64:64-i64:64-i128:128-f80:128-n8:16:32:64-S128"
target triple = "x86_64-pc-linux-gnu"

%struct.ssl_st = type { i32, i16, i16, ptr, ptr, ptr, ptr, ptr, i32, i32, ptr, ptr, i32, i32, ptr, ptr, ptr, ptr, ptr, ptr, ptr, ptr, i32, i32, [32 x i8], ptr, ptr, ptr, ptr, ptr, ptr, ptr, i64, %struct.crypto_ex_data_st, ptr, i32, i32, i32, i32, i16, ptr, i32, i64, ptr, ptr, ptr, ptr, ptr, ptr, i32, i32, ptr, ptr, i8, i8, i32 }
%struct.crypto_ex_data_st = type { ptr }
%struct.cert_st = type { ptr, ptr, ptr, ptr, i32, i32, ptr, ptr, ptr, i64, ptr, i64, ptr, ptr, ptr }

@tls12_sigalgs = internal constant [16 x i8] c"\06\01\06\03\05\01\05\03\04\01\04\03\02\01\02\03", align 16

; Function Attrs: nounwind uwtable
define hidden i64 @tls12_get_psigalgs(ptr noundef %0, ptr noundef %1) #0 {
  %3 = alloca ptr, align 8
  %4 = alloca ptr, align 8
  store ptr %0, ptr %3, align 8, !tbaa !69
  store ptr %1, ptr %4, align 8, !tbaa !64
  %5 = load ptr, ptr %4, align 8, !tbaa !64
  store ptr @tls12_sigalgs, ptr %5, align 8, !tbaa !55
  ret i64 16
}

; Function Attrs: nounwind uwtable
define hidden void @ssl_set_client_disabled(ptr noundef %0) #0 {
  %2 = alloca ptr, align 8
  %3 = alloca ptr, align 8
  %4 = alloca ptr, align 8
  %5 = alloca i64, align 8
  %6 = alloca i64, align 8
  %7 = alloca i32, align 4
  %8 = alloca i32, align 4
  store ptr %0, ptr %2, align 8, !tbaa !69
  call void @llvm.lifetime.start.p0(i64 8, ptr %3) #8
  %9 = load ptr, ptr %2, align 8, !tbaa !69
  %10 = getelementptr inbounds nuw %struct.ssl_st, ptr %9, i32 0, i32 21
  %11 = load ptr, ptr %10, align 8, !tbaa !113
  store ptr %11, ptr %3, align 8, !tbaa !114
  call void @llvm.lifetime.start.p0(i64 8, ptr %4) #8
  call void @llvm.lifetime.start.p0(i64 8, ptr %5) #8
  call void @llvm.lifetime.start.p0(i64 8, ptr %6) #8
  call void @llvm.lifetime.start.p0(i64 4, ptr %7) #8
  store i32 0, ptr %7, align 4, !tbaa !58
  call void @llvm.lifetime.start.p0(i64 4, ptr %8) #8
  store i32 0, ptr %8, align 4, !tbaa !58
  %12 = load ptr, ptr %3, align 8, !tbaa !114
  %13 = getelementptr inbounds nuw %struct.cert_st, ptr %12, i32 0, i32 5
  store i32 0, ptr %13, align 4, !tbaa !115
  %14 = load ptr, ptr %3, align 8, !tbaa !114
  %15 = getelementptr inbounds nuw %struct.cert_st, ptr %14, i32 0, i32 4
  store i32 0, ptr %15, align 8, !tbaa !122
  %16 = load ptr, ptr %2, align 8, !tbaa !69
  %17 = call i64 @tls12_get_psigalgs(ptr noundef %16, ptr noundef %4)
  store i64 %17, ptr %6, align 8, !tbaa !56
  store i64 0, ptr %5, align 8, !tbaa !56
  br label %18

18:                                               ; preds = %30, %1
  %19 = load i64, ptr %5, align 8, !tbaa !56
  %20 = load i64, ptr %6, align 8, !tbaa !56
  %21 = icmp ult i64 %19, %20
  br i1 %21, label %22, label %35

22:                                               ; preds = %18
  %23 = load ptr, ptr %4, align 8, !tbaa !55
  %24 = getelementptr inbounds i8, ptr %23, i64 1
  %25 = load i8, ptr %24, align 1, !tbaa !103
  %26 = zext i8 %25 to i32
  switch i32 %26, label %29 [
    i32 1, label %27
    i32 3, label %28
  ]

27:                                               ; preds = %22
  store i32 1, ptr %7, align 4, !tbaa !58
  br label %29

28:                                               ; preds = %22
  store i32 1, ptr %8, align 4, !tbaa !58
  br label %29

29:                                               ; preds = %22, %28, %27
  br label %30

30:                                               ; preds = %29
  %31 = load i64, ptr %5, align 8, !tbaa !56
  %32 = add i64 %31, 2
  store i64 %32, ptr %5, align 8, !tbaa !56
  %33 = load ptr, ptr %4, align 8, !tbaa !55
  %34 = getelementptr inbounds i8, ptr %33, i64 2
  store ptr %34, ptr %4, align 8, !tbaa !55
  br label %18, !llvm.loop !123

35:                                               ; preds = %18
  %36 = load i32, ptr %7, align 4, !tbaa !58
  %37 = icmp ne i32 %36, 0
  br i1 %37, label %45, label %38

38:                                               ; preds = %35
  %39 = load ptr, ptr %3, align 8, !tbaa !114
  %40 = getelementptr inbounds nuw %struct.cert_st, ptr %39, i32 0, i32 5
  %41 = load i32, ptr %40, align 4, !tbaa !115
  %42 = zext i32 %41 to i64
  %43 = or i64 %42, 1
  %44 = trunc i64 %43 to i32
  store i32 %44, ptr %40, align 4, !tbaa !115
  br label %45

45:                                               ; preds = %38, %35
  %46 = load i32, ptr %8, align 4, !tbaa !58
  %47 = icmp ne i32 %46, 0
  br i1 %47, label %55, label %48

48:                                               ; preds = %45
  %49 = load ptr, ptr %3, align 8, !tbaa !114
  %50 = getelementptr inbounds nuw %struct.cert_st, ptr %49, i32 0, i32 5
  %51 = load i32, ptr %50, align 4, !tbaa !115
  %52 = zext i32 %51 to i64
  %53 = or i64 %52, 2
  %54 = trunc i64 %53 to i32
  store i32 %54, ptr %50, align 4, !tbaa !115
  br label %55

55:                                               ; preds = %48, %45
  %56 = load ptr, ptr %2, align 8, !tbaa !69
  %57 = getelementptr inbounds nuw %struct.ssl_st, ptr %56, i32 0, i32 29
  %58 = load ptr, ptr %57, align 8, !tbaa !124
  %59 = icmp ne ptr %58, null
  br i1 %59, label %73, label %60

60:                                               ; preds = %55
  %61 = load ptr, ptr %3, align 8, !tbaa !114
  %62 = getelementptr inbounds nuw %struct.cert_st, ptr %61, i32 0, i32 5
  %63 = load i32, ptr %62, align 4, !tbaa !115
  %64 = zext i32 %63 to i64
  %65 = or i64 %64, 4
  %66 = trunc i64 %65 to i32
  store i32 %66, ptr %62, align 4, !tbaa !115
  %67 = load ptr, ptr %3, align 8, !tbaa !114
  %68 = getelementptr inbounds nuw %struct.cert_st, ptr %67, i32 0, i32 4
  %69 = load i32, ptr %68, align 8, !tbaa !122
  %70 = zext i32 %69 to i64
  %71 = or i64 %70, 8
  %72 = trunc i64 %71 to i32
  store i32 %72, ptr %68, align 8, !tbaa !122
  br label %73

73:                                               ; preds = %60, %55
  call void @llvm.lifetime.end.p0(i64 4, ptr %8) #8
  call void @llvm.lifetime.end.p0(i64 4, ptr %7) #8
  call void @llvm.lifetime.end.p0(i64 8, ptr %6) #8
  call void @llvm.lifetime.end.p0(i64 8, ptr %5) #8
  call void @llvm.lifetime.end.p0(i64 8, ptr %4) #8
  call void @llvm.lifetime.end.p0(i64 8, ptr %3) #8
  ret void
}