; Function Attrs: nofree norecurse nosync nounwind memory(write, argmem: readwrite, inaccessiblemem: none) uwtable
define hidden void @ssl_set_client_disabled(ptr noundef readonly captures(none) %0) local_unnamed_addr #9 {
  %2 = getelementptr inbounds nuw i8, ptr %0, i64 136
  %3 = load ptr, ptr %2, align 8, !tbaa !93
  %4 = getelementptr inbounds nuw i8, ptr %3, i64 36
  store i32 0, ptr %4, align 4, !tbaa !94
  %5 = getelementptr inbounds nuw i8, ptr %3, i64 32
  store i32 0, ptr %5, align 8, !tbaa !103
  br label %.outer

.outer:                                           ; preds = %.loopexit, %1
  %.023.ph = phi i32 [ %.1, %.loopexit ], [ 0, %1 ]
  %.01322.ph = phi i32 [ %.01322, %.loopexit ], [ 0, %1 ]
  %.01521.ph = phi i64 [ %9, %.loopexit ], [ 0, %1 ]
  %.01920.ph = phi ptr [ %10, %.loopexit ], [ @tls12_sigalgs, %1 ]
  br label %6

6:                                                ; preds = %.outer, %.thread
  %.01322 = phi i32 [ 1, %.thread ], [ %.01322.ph, %.outer ]
  %.01521 = phi i64 [ %12, %.thread ], [ %.01521.ph, %.outer ]
  %.01920 = phi ptr [ %13, %.thread ], [ %.01920.ph, %.outer ]
  %7 = getelementptr inbounds nuw i8, ptr %.01920, i64 1
  %8 = load i8, ptr %7, align 1, !tbaa !90
  switch i8 %8, label %.loopexit.loopexit [
    i8 1, label %.thread
    i8 3, label %.loopexit
  ]

.loopexit.loopexit:                               ; preds = %6
  br label %.loopexit

.loopexit:                                        ; preds = %6, %.loopexit.loopexit
  %.1 = phi i32 [ %.023.ph, %.loopexit.loopexit ], [ 1, %6 ]
  %9 = add nuw nsw i64 %.01521, 2
  %10 = getelementptr inbounds nuw i8, ptr %.01920, i64 2
  %11 = icmp samesign ult i64 %.01521, 14
  br i1 %11, label %.outer, label %15, !llvm.loop !104

.thread:                                          ; preds = %6
  %12 = add nuw nsw i64 %.01521, 2
  %13 = getelementptr inbounds nuw i8, ptr %.01920, i64 2
  %14 = icmp samesign ult i64 %.01521, 14
  br i1 %14, label %6, label %.thread28, !llvm.loop !104

15:                                               ; preds = %.loopexit
  %.not = icmp eq i32 %.01322, 0
  br i1 %.not, label %16, label %.thread28

16:                                               ; preds = %15
  store i32 1, ptr %4, align 4, !tbaa !94
  br label %.thread28

.thread28:                                        ; preds = %.thread, %16, %15
  %.12732 = phi i32 [ %.1, %16 ], [ %.1, %15 ], [ %.023.ph, %.thread ]
  %17 = phi i32 [ 1, %16 ], [ 0, %15 ], [ 0, %.thread ]
  %.not16 = icmp eq i32 %.12732, 0
  br i1 %.not16, label %18, label %20

18:                                               ; preds = %.thread28
  %19 = or disjoint i32 %17, 2
  store i32 %19, ptr %4, align 4, !tbaa !94
  br label %20

20:                                               ; preds = %18, %.thread28
  %21 = phi i32 [ %19, %18 ], [ %17, %.thread28 ]
  %22 = getelementptr inbounds nuw i8, ptr %0, i64 216
  %23 = load ptr, ptr %22, align 8, !tbaa !105
  %.not17 = icmp eq ptr %23, null
  br i1 %.not17, label %24, label %26

24:                                               ; preds = %20
  %25 = or i32 %21, 4
  store i32 %25, ptr %4, align 4, !tbaa !94
  store i32 8, ptr %5, align 8, !tbaa !103
  br label %26

26:                                               ; preds = %24, %20
  ret void
}